ccopy_reg
_reconstructor
p1
(csklearn.linear_model.logistic
LogisticRegression
p2
c__builtin__
object
p3
NtRp4
(dp5
S'warm_start'
p6
I00
sS'C'
F1
sS'classes_'
p7
cnumpy.core.multiarray
_reconstruct
p8
(cnumpy
ndarray
p9
(I0
tS'b'
tRp10
(I1
(I2
tcnumpy
dtype
p11
(S'i8'
I0
I1
tRp12
(I3
S'<'
NNNI-1
I-1
I0
tbI00
S'\x00\x00\x00\x00\x00\x00\x00\x00\x01\x00\x00\x00\x00\x00\x00\x00'
tbsS'n_jobs'
p13
I1
sS'verbose'
p14
I0
sS'fit_intercept'
p15
I01
sS'max_iter'
p16
I100
sS'class_weight'
p17
NsS'n_iter_'
p18
g8
(g9
(I0
tS'b'
tRp19
(I1
(I1
tg11
(S'i4'
I0
I1
tRp20
(I3
S'<'
NNNI-1
I-1
I0
tbI00
S'\x16\x00\x00\x00'
tbsS'intercept_'
p21
g8
(g9
(I0
tS'b'
tRp22
(I1
(I1
tg11
(S'f8'
I0
I1
tRp23
(I3
S'<'
NNNI-1
I-1
I0
tbI00
S'\x07\xeb+\x9f_\xb7\x16\xc0'
tbsS'penalty'
p24
S'l2'
p25
sS'multi_class'
p26
S'ovr'
p27
sS'random_state'
p28
NsS'_sklearn_version'
p29
S'0.18.1'
p30
sS'dual'
p31
I00
sS'tol'
p32
F0.0001
sS'coef_'
p33
g8
(g9
(I0
tS'b'
tRp34
(I1
(I1
I8
tg23
I01
S"\xba\xc3\xa8\xbe!_\xba?C\xbb\x17E\x9c|\x99?\x97\x0fW\x93\xb2\xfc\x93\xbf\x1a\x7f\xe6\xa2r\xc3'?02\xf6\xb6\xd1\x87\xf6\xbe\xb4wa@\xe4\xe1\xb1?\x08X+\x82{\x8f\xe5?M{!\xe1\xc7\xef\x84?"
tbsS'solver'
p35
S'liblinear'
p36
sS'intercept_scaling'
p37
I1
sb.